target datalayout = "e-m:e-p270:32:32-p271:32:32-p272:64:64-i64:64-i128:128-f80:128-n8:16:32:64-S128"
target triple = "x86_64-pc-linux-gnu"

%"struct.cv::rgbd::RgbdFrame" = type { ptr, i32, %"class.cv::Mat", %"class.cv::Mat", %"class.cv::Mat", %"class.cv::Mat" }
%"class.cv::Mat" = type { i32, i32, i32, i32, ptr, ptr, ptr, ptr, ptr, ptr, %"struct.cv::MatSize", %"struct.cv::MatStep" }
%"struct.cv::MatSize" = type { ptr }
%"struct.cv::MatStep" = type { ptr, [2 x i64] }
%"struct.cv::rgbd::OdometryFrame" = type { %"struct.cv::rgbd::RgbdFrame", %"class.std::vector", %"class.std::vector", %"class.std::vector", %"class.std::vector", %"class.std::vector", %"class.std::vector", %"class.std::vector", %"class.std::vector", %"class.std::vector" }
%"class.std::vector" = type { %"struct.std::_Vector_base" }
%"struct.std::_Vector_base" = type { %"struct.std::_Vector_base<cv::Mat, std::allocator<cv::Mat>>::_Vector_impl" }
%"struct.std::_Vector_base<cv::Mat, std::allocator<cv::Mat>>::_Vector_impl" = type { %"struct.std::_Vector_base<cv::Mat, std::allocator<cv::Mat>>::_Vector_impl_data" }
%"struct.std::_Vector_base<cv::Mat, std::allocator<cv::Mat>>::_Vector_impl_data" = type { ptr, ptr, ptr }

@_ZTVN2cv4rgbd9RgbdFrameE = unnamed_addr constant { [5 x ptr] } { [5 x ptr] [ptr null, ptr @_ZTIN2cv4rgbd9RgbdFrameE, ptr @_ZN2cv4rgbd9RgbdFrameD1Ev, ptr @_ZN2cv4rgbd9RgbdFrameD0Ev, ptr @_ZN2cv4rgbd9RgbdFrame7releaseEv] }, align 8
@_ZTVN2cv4rgbd13OdometryFrameE = unnamed_addr constant { [5 x ptr] } { [5 x ptr] [ptr null, ptr @_ZTIN2cv4rgbd13OdometryFrameE, ptr @_ZN2cv4rgbd13OdometryFrameD2Ev, ptr @_ZN2cv4rgbd13OdometryFrameD0Ev, ptr @_ZN2cv4rgbd13OdometryFrame7releaseEv] }, align 8

; Function Attrs: mustprogress nounwind uwtable
define linkonce_odr hidden void @_ZNSt15__new_allocatorIN2cv3MatEEC2Ev(ptr noundef nonnull align 1 dereferenceable(1) %0) unnamed_addr #7 comdat align 2 {
  %2 = alloca ptr, align 8
  store ptr %0, ptr %2, align 8, !tbaa !236
  ret void
}

; Function Attrs: mustprogress nounwind uwtable
define linkonce_odr hidden void @_ZNSt12_Vector_baseIN2cv3MatESaIS1_EE17_Vector_impl_dataC2Ev(ptr noundef nonnull align 8 dereferenceable(24) %0) unnamed_addr #7 comdat align 2 {
  %2 = alloca ptr, align 8
  store ptr %0, ptr %2, align 8, !tbaa !233
  %3 = load ptr, ptr %2, align 8
  %4 = getelementptr inbounds nuw %"struct.std::_Vector_base<cv::Mat, std::allocator<cv::Mat>>::_Vector_impl_data", ptr %3, i32 0, i32 0
  store ptr null, ptr %4, align 8, !tbaa !35
  %5 = getelementptr inbounds nuw %"struct.std::_Vector_base<cv::Mat, std::allocator<cv::Mat>>::_Vector_impl_data", ptr %3, i32 0, i32 1
  store ptr null, ptr %5, align 8, !tbaa !104
  %6 = getelementptr inbounds nuw %"struct.std::_Vector_base<cv::Mat, std::allocator<cv::Mat>>::_Vector_impl_data", ptr %3, i32 0, i32 2
  store ptr null, ptr %6, align 8, !tbaa !235
  ret void
}

; Function Attrs: mustprogress nounwind uwtable
define linkonce_odr hidden void @_ZNSaIN2cv3MatEEC2Ev(ptr noundef nonnull align 1 dereferenceable(1) %0) unnamed_addr #7 comdat align 2 {
  %2 = alloca ptr, align 8
  store ptr %0, ptr %2, align 8, !tbaa !231
  %3 = load ptr, ptr %2, align 8
  call void @_ZNSt15__new_allocatorIN2cv3MatEEC2Ev(ptr noundef nonnull align 1 dereferenceable(1) %3) #3
  ret void
}

; Function Attrs: mustprogress nounwind uwtable
define linkonce_odr hidden void @_ZNSt12_Vector_baseIN2cv3MatESaIS1_EE12_Vector_implC2Ev(ptr noundef nonnull align 8 dereferenceable(24) %0) unnamed_addr #7 comdat align 2 {
  %2 = alloca ptr, align 8
  store ptr %0, ptr %2, align 8, !tbaa !229
  %3 = load ptr, ptr %2, align 8
  call void @_ZNSaIN2cv3MatEEC2Ev(ptr noundef nonnull align 1 dereferenceable(1) %3) #3
  call void @_ZNSt12_Vector_baseIN2cv3MatESaIS1_EE17_Vector_impl_dataC2Ev(ptr noundef nonnull align 8 dereferenceable(24) %3) #3
  ret void
}

; Function Attrs: mustprogress nounwind uwtable
define linkonce_odr hidden void @_ZNSt12_Vector_baseIN2cv3MatESaIS1_EEC2Ev(ptr noundef nonnull align 8 dereferenceable(24) %0) unnamed_addr #7 comdat align 2 {
  %2 = alloca ptr, align 8
  store ptr %0, ptr %2, align 8, !tbaa !227
  %3 = load ptr, ptr %2, align 8
  %4 = getelementptr inbounds nuw %"struct.std::_Vector_base", ptr %3, i32 0, i32 0
  call void @_ZNSt12_Vector_baseIN2cv3MatESaIS1_EE12_Vector_implC2Ev(ptr noundef nonnull align 8 dereferenceable(24) %4) #3
  ret void
}

; Function Attrs: mustprogress nounwind uwtable
define linkonce_odr hidden void @_ZNSt6vectorIN2cv3MatESaIS1_EEC2Ev(ptr noundef nonnull align 8 dereferenceable(24) %0) unnamed_addr #7 comdat align 2 {
  %2 = alloca ptr, align 8
  store ptr %0, ptr %2, align 8, !tbaa !33
  %3 = load ptr, ptr %2, align 8
  call void @_ZNSt12_Vector_baseIN2cv3MatESaIS1_EEC2Ev(ptr noundef nonnull align 8 dereferenceable(24) %3) #3
  ret void
}

; Function Attrs: mustprogress uwtable
define void @_ZN2cv4rgbd9RgbdFrameC2ERKNS_3MatES4_S4_S4_i(ptr noundef nonnull align 8 dereferenceable(400) %0, ptr noundef nonnull align 8 dereferenceable(96) %1, ptr noundef nonnull align 8 dereferenceable(96) %2, ptr noundef nonnull align 8 dereferenceable(96) %3, ptr noundef nonnull align 8 dereferenceable(96) %4, i32 noundef %5) unnamed_addr #6 align 2 personality ptr @__gxx_personality_v0 {
  %7 = alloca ptr, align 8
  %8 = alloca ptr, align 8
  %9 = alloca ptr, align 8
  %10 = alloca ptr, align 8
  %11 = alloca ptr, align 8
  %12 = alloca i32, align 4
  %13 = alloca ptr, align 8
  %14 = alloca i32, align 4
  store ptr %0, ptr %7, align 8, !tbaa !16
  store ptr %1, ptr %8, align 8, !tbaa !29
  store ptr %2, ptr %9, align 8, !tbaa !29
  store ptr %3, ptr %10, align 8, !tbaa !29
  store ptr %4, ptr %11, align 8, !tbaa !29
  store i32 %5, ptr %12, align 4, !tbaa !10
  %15 = load ptr, ptr %7, align 8
  store ptr getelementptr inbounds inrange(-16, 24) ({ [5 x ptr] }, ptr @_ZTVN2cv4rgbd9RgbdFrameE, i32 0, i32 0, i32 2), ptr %15, align 8, !tbaa !18
  %16 = getelementptr inbounds nuw %"struct.cv::rgbd::RgbdFrame", ptr %15, i32 0, i32 1
  %17 = load i32, ptr %12, align 4, !tbaa !10
  store i32 %17, ptr %16, align 8, !tbaa !20
  %18 = getelementptr inbounds nuw %"struct.cv::rgbd::RgbdFrame", ptr %15, i32 0, i32 2
  %19 = load ptr, ptr %8, align 8, !tbaa !29
  call void @_ZN2cv3MatC1ERKS0_(ptr noundef nonnull align 8 dereferenceable(96) %18, ptr noundef nonnull align 8 dereferenceable(96) %19)
  %20 = getelementptr inbounds nuw %"struct.cv::rgbd::RgbdFrame", ptr %15, i32 0, i32 3
  %21 = load ptr, ptr %9, align 8, !tbaa !29
  invoke void @_ZN2cv3MatC1ERKS0_(ptr noundef nonnull align 8 dereferenceable(96) %20, ptr noundef nonnull align 8 dereferenceable(96) %21)
          to label %22 unwind label %29

22:                                               ; preds = %6
  %23 = getelementptr inbounds nuw %"struct.cv::rgbd::RgbdFrame", ptr %15, i32 0, i32 4
  %24 = load ptr, ptr %10, align 8, !tbaa !29
  invoke void @_ZN2cv3MatC1ERKS0_(ptr noundef nonnull align 8 dereferenceable(96) %23, ptr noundef nonnull align 8 dereferenceable(96) %24)
          to label %25 unwind label %33

25:                                               ; preds = %22
  %26 = getelementptr inbounds nuw %"struct.cv::rgbd::RgbdFrame", ptr %15, i32 0, i32 5
  %27 = load ptr, ptr %11, align 8, !tbaa !29
  invoke void @_ZN2cv3MatC1ERKS0_(ptr noundef nonnull align 8 dereferenceable(96) %26, ptr noundef nonnull align 8 dereferenceable(96) %27)
          to label %28 unwind label %37

28:                                               ; preds = %25
  ret void

29:                                               ; preds = %6
  %30 = landingpad { ptr, i32 }
          cleanup
  %31 = extractvalue { ptr, i32 } %30, 0
  store ptr %31, ptr %13, align 8
  %32 = extractvalue { ptr, i32 } %30, 1
  store i32 %32, ptr %14, align 4
  br label %42

33:                                               ; preds = %22
  %34 = landingpad { ptr, i32 }
          cleanup
  %35 = extractvalue { ptr, i32 } %34, 0
  store ptr %35, ptr %13, align 8
  %36 = extractvalue { ptr, i32 } %34, 1
  store i32 %36, ptr %14, align 4
  br label %41

37:                                               ; preds = %25
  %38 = landingpad { ptr, i32 }
          cleanup
  %39 = extractvalue { ptr, i32 } %38, 0
  store ptr %39, ptr %13, align 8
  %40 = extractvalue { ptr, i32 } %38, 1
  store i32 %40, ptr %14, align 4
  call void @_ZN2cv3MatD1Ev(ptr noundef nonnull align 8 dereferenceable(96) %23) #3
  br label %41

41:                                               ; preds = %37, %33
  call void @_ZN2cv3MatD1Ev(ptr noundef nonnull align 8 dereferenceable(96) %20) #3
  br label %42

42:                                               ; preds = %41, %29
  call void @_ZN2cv3MatD1Ev(ptr noundef nonnull align 8 dereferenceable(96) %18) #3
  br label %43

43:                                               ; preds = %42
  %44 = load ptr, ptr %13, align 8
  %45 = load i32, ptr %14, align 4
  %46 = insertvalue { ptr, i32 } poison, ptr %44, 0
  %47 = insertvalue { ptr, i32 } %46, i32 %45, 1
  resume { ptr, i32 } %47
}

; Function Attrs: mustprogress uwtable
define void @_ZN2cv4rgbd13OdometryFrameC2ERKNS_3MatES4_S4_S4_i(ptr noundef nonnull align 8 dereferenceable(616) %0, ptr noundef nonnull align 8 dereferenceable(96) %1, ptr noundef nonnull align 8 dereferenceable(96) %2, ptr noundef nonnull align 8 dereferenceable(96) %3, ptr noundef nonnull align 8 dereferenceable(96) %4, i32 noundef %5) unnamed_addr #6 align 2 {
  %7 = alloca ptr, align 8
  %8 = alloca ptr, align 8
  %9 = alloca ptr, align 8
  %10 = alloca ptr, align 8
  %11 = alloca ptr, align 8
  %12 = alloca i32, align 4
  store ptr %0, ptr %7, align 8, !tbaa !31
  store ptr %1, ptr %8, align 8, !tbaa !29
  store ptr %2, ptr %9, align 8, !tbaa !29
  store ptr %3, ptr %10, align 8, !tbaa !29
  store ptr %4, ptr %11, align 8, !tbaa !29
  store i32 %5, ptr %12, align 4, !tbaa !10
  %13 = load ptr, ptr %7, align 8
  %14 = load ptr, ptr %8, align 8, !tbaa !29
  %15 = load ptr, ptr %9, align 8, !tbaa !29
  %16 = load ptr, ptr %10, align 8, !tbaa !29
  %17 = load ptr, ptr %11, align 8, !tbaa !29
  %18 = load i32, ptr %12, align 4, !tbaa !10
  call void @_ZN2cv4rgbd9RgbdFrameC2ERKNS_3MatES4_S4_S4_i(ptr noundef nonnull align 8 dereferenceable(400) %13, ptr noundef nonnull align 8 dereferenceable(96) %14, ptr noundef nonnull align 8 dereferenceable(96) %15, ptr noundef nonnull align 8 dereferenceable(96) %16, ptr noundef nonnull align 8 dereferenceable(96) %17, i32 noundef %18)
  store ptr getelementptr inbounds inrange(-16, 24) ({ [5 x ptr] }, ptr @_ZTVN2cv4rgbd13OdometryFrameE, i32 0, i32 0, i32 2), ptr %13, align 8, !tbaa !18
  %19 = getelementptr inbounds nuw %"struct.cv::rgbd::OdometryFrame", ptr %13, i32 0, i32 1
  call void @_ZNSt6vectorIN2cv3MatESaIS1_EEC2Ev(ptr noundef nonnull align 8 dereferenceable(24) %19) #3
  %20 = getelementptr inbounds nuw %"struct.cv::rgbd::OdometryFrame", ptr %13, i32 0, i32 2
  call void @_ZNSt6vectorIN2cv3MatESaIS1_EEC2Ev(ptr noundef nonnull align 8 dereferenceable(24) %20) #3
  %21 = getelementptr inbounds nuw %"struct.cv::rgbd::OdometryFrame", ptr %13, i32 0, i32 3
  call void @_ZNSt6vectorIN2cv3MatESaIS1_EEC2Ev(ptr noundef nonnull align 8 dereferenceable(24) %21) #3
  %22 = getelementptr inbounds nuw %"struct.cv::rgbd::OdometryFrame", ptr %13, i32 0, i32 4
  call void @_ZNSt6vectorIN2cv3MatESaIS1_EEC2Ev(ptr noundef nonnull align 8 dereferenceable(24) %22) #3
  %23 = getelementptr inbounds nuw %"struct.cv::rgbd::OdometryFrame", ptr %13, i32 0, i32 5
  call void @_ZNSt6vectorIN2cv3MatESaIS1_EEC2Ev(ptr noundef nonnull align 8 dereferenceable(24) %23) #3
  %24 = getelementptr inbounds nuw %"struct.cv::rgbd::OdometryFrame", ptr %13, i32 0, i32 6
  call void @_ZNSt6vectorIN2cv3MatESaIS1_EEC2Ev(ptr noundef nonnull align 8 dereferenceable(24) %24) #3
  %25 = getelementptr inbounds nuw %"struct.cv::rgbd::OdometryFrame", ptr %13, i32 0, i32 7
  call void @_ZNSt6vectorIN2cv3MatESaIS1_EEC2Ev(ptr noundef nonnull align 8 dereferenceable(24) %25) #3
  %26 = getelementptr inbounds nuw %"struct.cv::rgbd::OdometryFrame", ptr %13, i32 0, i32 8
  call void @_ZNSt6vectorIN2cv3MatESaIS1_EEC2Ev(ptr noundef nonnull align 8 dereferenceable(24) %26) #3
  %27 = getelementptr inbounds nuw %"struct.cv::rgbd::OdometryFrame", ptr %13, i32 0, i32 9
  call void @_ZNSt6vectorIN2cv3MatESaIS1_EEC2Ev(ptr noundef nonnull align 8 dereferenceable(24) %27) #3
  ret void
}