; Function Attrs: mustprogress uwtable
define void @_ZN2cv4rgbd13OdometryFrameC2ERKNS_3MatES4_S4_S4_i(ptr noundef nonnull align 8 dereferenceable(616) initializes((0, 12)) %0, ptr noundef nonnull align 8 dereferenceable(96) %1, ptr noundef nonnull align 8 dereferenceable(96) %2, ptr noundef nonnull align 8 dereferenceable(96) %3, ptr noundef nonnull align 8 dereferenceable(96) %4, i32 noundef %5) unnamed_addr #4 align 2 personality ptr @__gxx_personality_v0 {
  store ptr getelementptr inbounds nuw inrange(-16, 24) (i8, ptr @_ZTVN2cv4rgbd9RgbdFrameE, i64 16), ptr %0, align 8, !tbaa !15
  %7 = getelementptr inbounds nuw i8, ptr %0, i64 8
  store i32 %5, ptr %7, align 8, !tbaa !33
  %8 = getelementptr inbounds nuw i8, ptr %0, i64 16
  tail call void @_ZN2cv3MatC1ERKS0_(ptr noundef nonnull align 8 dereferenceable(96) %8, ptr noundef nonnull align 8 dereferenceable(96) %1)
  %9 = getelementptr inbounds nuw i8, ptr %0, i64 112
  invoke void @_ZN2cv3MatC1ERKS0_(ptr noundef nonnull align 8 dereferenceable(96) %9, ptr noundef nonnull align 8 dereferenceable(96) %2)
          to label %10 unwind label %14

10:                                               ; preds = %6
  %11 = getelementptr inbounds nuw i8, ptr %0, i64 208
  invoke void @_ZN2cv3MatC1ERKS0_(ptr noundef nonnull align 8 dereferenceable(96) %11, ptr noundef nonnull align 8 dereferenceable(96) %3)
          to label %12 unwind label %16

12:                                               ; preds = %10
  %13 = getelementptr inbounds nuw i8, ptr %0, i64 304
  invoke void @_ZN2cv3MatC1ERKS0_(ptr noundef nonnull align 8 dereferenceable(96) %13, ptr noundef nonnull align 8 dereferenceable(96) %4)
          to label %_ZN2cv4rgbd9RgbdFrameC2ERKNS_3MatES4_S4_S4_i.exit unwind label %18

14:                                               ; preds = %6
  %15 = landingpad { ptr, i32 }
          cleanup
  br label %21

16:                                               ; preds = %10
  %17 = landingpad { ptr, i32 }
          cleanup
  br label %20

18:                                               ; preds = %12
  %19 = landingpad { ptr, i32 }
          cleanup
  tail call void @_ZN2cv3MatD1Ev(ptr noundef nonnull align 8 dereferenceable(96) %11) #31
  br label %20

20:                                               ; preds = %18, %16
  %.pn.i = phi { ptr, i32 } [ %19, %18 ], [ %17, %16 ]
  tail call void @_ZN2cv3MatD1Ev(ptr noundef nonnull align 8 dereferenceable(96) %9) #31
  br label %21

21:                                               ; preds = %20, %14
  %.pn.pn.i = phi { ptr, i32 } [ %.pn.i, %20 ], [ %15, %14 ]
  tail call void @_ZN2cv3MatD1Ev(ptr noundef nonnull align 8 dereferenceable(96) %8) #31
  resume { ptr, i32 } %.pn.pn.i

_ZN2cv4rgbd9RgbdFrameC2ERKNS_3MatES4_S4_S4_i.exit: ; preds = %12
  store ptr getelementptr inbounds nuw inrange(-16, 24) (i8, ptr @_ZTVN2cv4rgbd13OdometryFrameE, i64 16), ptr %0, align 8, !tbaa !15
  %22 = getelementptr inbounds nuw i8, ptr %0, i64 400
  tail call void @llvm.memset.p0.i64(ptr noundef nonnull align 8 dereferenceable(216) %22, i8 0, i64 216, i1 false)
  ret void
}